; Function Attrs: cold nounwind optsize uwtable
define internal void @drawbox_vaapi_uninit(ptr noundef %0) #0 {
  %2 = getelementptr inbounds nuw i8, ptr %0, i64 72
  %3 = load ptr, ptr %2, align 8, !tbaa !4
  %4 = getelementptr inbounds nuw i8, ptr %3, i64 176
  tail call void @av_frame_free(ptr noundef nonnull %4) #5
  %5 = getelementptr inbounds nuw i8, ptr %3, i64 160
  tail call void @av_buffer_unref(ptr noundef nonnull %5) #5
  tail call void @ff_vaapi_vpp_ctx_uninit(ptr noundef %0) #5
  ret void
}